; Function Attrs: mustprogress nounwind uwtable
define dso_local void @_ZN11StringUtils13ignore_spacesERKNSt7__cxx1112basic_stringIcSt11char_traitsIcESaIcEEERm(ptr noundef nonnull align 8 dereferenceable(32) %0, ptr noundef nonnull align 8 captures(none) dereferenceable(8) %1) local_unnamed_addr #3 align 2 {
  %.pre = load i64, ptr %1, align 8
  br label %3

3:                                                ; preds = %7, %2
  %4 = phi i64 [ %9, %7 ], [ %.pre, %2 ]
  %5 = tail call noundef nonnull align 1 dereferenceable(1) ptr @_ZNKSt7__cxx1112basic_stringIcSt11char_traitsIcESaIcEEixEm(ptr noundef nonnull align 8 dereferenceable(32) %0, i64 noundef %4) #18
  %6 = load i8, ptr %5, align 1
  switch i8 %6, label %_ZN11StringUtils8is_spaceEc.exit [
    i8 32, label %7
    i8 9, label %7
    i8 10, label %7
  ]

7:                                                ; preds = %3, %3, %3
  %8 = load i64, ptr %1, align 8
  %9 = add i64 %8, 1
  store i64 %9, ptr %1, align 8
  br label %3, !llvm.loop !5

_ZN11StringUtils8is_spaceEc.exit:                 ; preds = %3
  ret void
}